; Function Attrs: nounwind sspstrong uwtable
define dso_local i64 @cpu_get_phys_page_attrs_debug(ptr noundef %cpu, i64 noundef %addr, ptr noundef %attrs) local_unnamed_addr #0 {
entry:
  %call.i = tail call ptr @object_get_class(ptr noundef %cpu) #3
  %call1.i = tail call ptr @object_class_dynamic_cast_assert(ptr noundef %call.i, ptr noundef nonnull @.str.3, ptr noundef nonnull @.str.4, i32 noundef 64, ptr noundef nonnull @__func__.CPU_GET_CLASS) #3
  %sysemu_ops = getelementptr inbounds nuw i8, ptr %call1.i, i64 320
  %0 = load ptr, ptr %sysemu_ops, align 8
  %get_phys_page_attrs_debug = getelementptr inbounds nuw i8, ptr %0, i64 24
  %1 = load ptr, ptr %get_phys_page_attrs_debug, align 8
  %tobool.not = icmp eq ptr %1, null
  br i1 %tobool.not, label %if.end, label %if.then

if.then:                                          ; preds = %entry
  %call3 = tail call i64 %1(ptr noundef %cpu, i64 noundef %addr, ptr noundef %attrs) #3
  br label %return

if.end:                                           ; preds = %entry
  store i32 1, ptr %attrs, align 4
  %2 = load ptr, ptr %sysemu_ops, align 8
  %get_phys_page_debug = getelementptr inbounds nuw i8, ptr %2, i64 16
  %3 = load ptr, ptr %get_phys_page_debug, align 8
  %call32 = tail call i64 %3(ptr noundef %cpu, i64 noundef %addr) #3
  br label %return

return:                                           ; preds = %if.end, %if.then
  %retval.0 = phi i64 [ %call3, %if.then ], [ %call32, %if.end ]
  ret i64 %retval.0
}